(dp1
S'object_min_surf_dist'
p2
(dp3
I0
(lp4
(I5
I5
I1
tp5
ag5
ag5
ag5
ag5
ag5
ag5
ag5
ag5
ag5
ag5
ag5
asI1
(lp6
g5
ag5
ag5
ag5
ag5
ag5
ag5
ag5
ag5
ag5
ag5
ag5
asI2
(lp7
g5
ag5
ag5
ag5
ag5
ag5
ag5
ag5
ag5
ag5
ag5
ag5
asI3
(lp8
g5
ag5
ag5
ag5
ag5
ag5
ag5
ag5
ag5
ag5
ag5
ag5
asI4
(lp9
g5
ag5
ag5
ag5
ag5
ag5
ag5
ag5
ag5
ag5
ag5
ag5
asI5
(lp10
g5
ag5
ag5
ag5
ag5
ag5
ag5
ag5
ag5
ag5
ag5
ag5
asI6
(lp11
g5
ag5
ag5
ag5
ag5
ag5
ag5
ag5
ag5
ag5
ag5
ag5
asI7
(lp12
g5
ag5
ag5
ag5
ag5
ag5
ag5
ag5
ag5
ag5
ag5
ag5
asI8
(lp13
g5
ag5
ag5
ag5
ag5
ag5
ag5
ag5
ag5
ag5
ag5
ag5
asI9
(lp14
g5
ag5
ag5
ag5
ag5
ag5
ag5
ag5
ag5
ag5
ag5
ag5
asI10
(lp15
g5
ag5
ag5
ag5
ag5
ag5
ag5
ag5
ag5
ag5
ag5
ag5
asI11
(lp16
g5
ag5
ag5
ag5
ag5
ag5
ag5
ag5
ag5
ag5
ag5
ag5
asI12
(lp17
g5
ag5
ag5
ag5
ag5
ag5
ag5
ag5
ag5
ag5
ag5
ag5
asI13
(lp18
g5
ag5
ag5
ag5
ag5
ag5
ag5
ag5
ag5
ag5
ag5
ag5
asI14
(lp19
g5
ag5
ag5
ag5
ag5
ag5
ag5
ag5
ag5
ag5
ag5
ag5
asI15
(lp20
g5
ag5
ag5
ag5
ag5
ag5
ag5
ag5
ag5
ag5
ag5
ag5
asI16
(lp21
g5
ag5
ag5
ag5
ag5
ag5
ag5
ag5
ag5
ag5
ag5
ag5
asI17
(lp22
g5
ag5
ag5
ag5
ag5
ag5
ag5
ag5
ag5
ag5
ag5
ag5
asI18
(lp23
g5
ag5
ag5
ag5
ag5
ag5
ag5
ag5
ag5
ag5
ag5
ag5
asI19
(lp24
g5
ag5
ag5
ag5
ag5
ag5
ag5
ag5
ag5
ag5
ag5
ag5
asI20
(lp25
g5
ag5
ag5
ag5
ag5
ag5
ag5
ag5
ag5
ag5
ag5
ag5
assS'K'
I30
sS'object_visibility'
p26
(dp27
I0
(lp28
I01
aI01
aI01
aI01
aI01
aI01
aI01
aI01
aI01
aI01
aI01
aI01
asI1
(lp29
I01
aI01
aI01
aI01
aI01
aI01
aI01
aI01
aI01
aI01
aI01
aI01
asI2
(lp30
I01
aI01
aI01
aI01
aI01
aI01
aI01
aI01
aI01
aI01
aI01
aI01
asI3
(lp31
I01
aI01
aI01
aI01
aI01
aI01
aI01
aI01
aI01
aI01
aI01
aI01
asI4
(lp32
I01
aI01
aI01
aI01
aI01
aI01
aI01
aI01
aI01
aI01
aI01
aI01
asI5
(lp33
I01
aI01
aI01
aI01
aI01
aI01
aI01
aI01
aI01
aI01
aI01
aI01
asI6
(lp34
I01
aI01
aI01
aI01
aI01
aI01
aI01
aI01
aI01
aI01
aI01
aI01
asI7
(lp35
I01
aI01
aI01
aI01
aI01
aI01
aI01
aI01
aI01
aI01
aI01
aI01
asI8
(lp36
I01
aI01
aI01
aI01
aI01
aI01
aI01
aI01
aI01
aI01
aI01
aI01
asI9
(lp37
I01
aI01
aI01
aI01
aI01
aI01
aI01
aI01
aI01
aI01
aI01
aI01
asI10
(lp38
I01
aI01
aI01
aI01
aI01
aI01
aI01
aI01
aI01
aI01
aI01
aI01
asI11
(lp39
I01
aI01
aI01
aI01
aI01
aI01
aI01
aI01
aI01
aI01
aI01
aI01
asI12
(lp40
I01
aI01
aI01
aI01
aI01
aI01
aI01
aI01
aI01
aI01
aI01
aI01
asI13
(lp41
I01
aI01
aI01
aI01
aI01
aI01
aI01
aI01
aI01
aI01
aI01
aI01
asI14
(lp42
I01
aI01
aI01
aI01
aI01
aI01
aI01
aI01
aI01
aI01
aI01
aI01
asI15
(lp43
I01
aI01
aI01
aI01
aI01
aI01
aI01
aI01
aI01
aI01
aI01
aI01
asI16
(lp44
I01
aI01
aI01
aI01
aI01
aI01
aI01
aI01
aI01
aI01
aI01
aI01
asI17
(lp45
I01
aI01
aI01
aI01
aI01
aI01
aI01
aI01
aI01
aI01
aI01
aI01
asI18
(lp46
I01
aI01
aI01
aI01
aI01
aI01
aI01
aI01
aI01
aI01
aI01
aI01
asI19
(lp47
I01
aI01
aI01
aI01
aI01
aI01
aI01
aI01
aI01
aI01
aI01
aI01
asI20
(lp48
I01
aI01
aI01
aI01
aI01
aI01
aI01
aI01
aI01
aI01
aI01
aI01
assS'filenames'
p49
(lp50
S'/Users/jug/Dropbox/ProjectGoldstein/2016-09-22_fromMark/092216_PH-mCherry-02_w2SD mCherry_t1.TIF'
p51
aS'/Users/jug/Dropbox/ProjectGoldstein/2016-09-22_fromMark/092216_PH-mCherry-02_w2SD mCherry_t2.TIF'
p52
aS'/Users/jug/Dropbox/ProjectGoldstein/2016-09-22_fromMark/092216_PH-mCherry-02_w2SD mCherry_t3.TIF'
p53
aS'/Users/jug/Dropbox/ProjectGoldstein/2016-09-22_fromMark/092216_PH-mCherry-02_w2SD mCherry_t4.TIF'
p54
aS'/Users/jug/Dropbox/ProjectGoldstein/2016-09-22_fromMark/092216_PH-mCherry-02_w2SD mCherry_t5.TIF'
p55
aS'/Users/jug/Dropbox/ProjectGoldstein/2016-09-22_fromMark/092216_PH-mCherry-02_w2SD mCherry_t6.TIF'
p56
aS'/Users/jug/Dropbox/ProjectGoldstein/2016-09-22_fromMark/092216_PH-mCherry-02_w2SD mCherry_t7.TIF'
p57
aS'/Users/jug/Dropbox/ProjectGoldstein/2016-09-22_fromMark/092216_PH-mCherry-02_w2SD mCherry_t8.TIF'
p58
aS'/Users/jug/Dropbox/ProjectGoldstein/2016-09-22_fromMark/092216_PH-mCherry-02_w2SD mCherry_t9.TIF'
p59
aS'/Users/jug/Dropbox/ProjectGoldstein/2016-09-22_fromMark/092216_PH-mCherry-02_w2SD mCherry_t10.TIF'
p60
aS'/Users/jug/Dropbox/ProjectGoldstein/2016-09-22_fromMark/092216_PH-mCherry-02_w2SD mCherry_t11.TIF'
p61
aS'/Users/jug/Dropbox/ProjectGoldstein/2016-09-22_fromMark/092216_PH-mCherry-02_w2SD mCherry_t12.TIF'
p62
asS'object_max_surf_dist'
p63
(dp64
I0
(lp65
(I64
I64
I15
tp66
ag66
ag66
ag66
ag66
ag66
ag66
ag66
ag66
ag66
ag66
ag66
asI1
(lp67
g66
ag66
ag66
ag66
ag66
ag66
ag66
ag66
ag66
ag66
ag66
ag66
asI2
(lp68
g66
ag66
ag66
ag66
ag66
ag66
ag66
ag66
ag66
ag66
ag66
ag66
asI3
(lp69
g66
ag66
ag66
ag66
ag66
ag66
ag66
ag66
ag66
ag66
ag66
ag66
asI4
(lp70
g66
ag66
ag66
ag66
ag66
ag66
ag66
ag66
ag66
ag66
ag66
ag66
asI5
(lp71
g66
ag66
ag66
ag66
ag66
ag66
ag66
ag66
ag66
ag66
ag66
ag66
asI6
(lp72
g66
ag66
ag66
ag66
ag66
ag66
ag66
ag66
ag66
ag66
ag66
ag66
asI7
(lp73
g66
ag66
ag66
ag66
ag66
ag66
ag66
ag66
ag66
ag66
ag66
ag66
asI8
(lp74
g66
ag66
ag66
ag66
ag66
ag66
ag66
ag66
ag66
ag66
ag66
ag66
asI9
(lp75
g66
ag66
ag66
ag66
ag66
ag66
ag66
ag66
ag66
ag66
ag66
ag66
asI10
(lp76
g66
ag66
ag66
ag66
ag66
ag66
ag66
ag66
ag66
ag66
ag66
ag66
asI11
(lp77
g66
ag66
ag66
ag66
ag66
ag66
ag66
ag66
ag66
ag66
ag66
ag66
asI12
(lp78
g66
ag66
ag66
ag66
ag66
ag66
ag66
ag66
ag66
ag66
ag66
ag66
asI13
(lp79
g66
ag66
ag66
ag66
ag66
ag66
ag66
ag66
ag66
ag66
ag66
ag66
asI14
(lp80
g66
ag66
ag66
ag66
ag66
ag66
ag66
ag66
ag66
ag66
ag66
ag66
asI15
(lp81
g66
ag66
ag66
ag66
ag66
ag66
ag66
ag66
ag66
ag66
ag66
ag66
asI16
(lp82
g66
ag66
ag66
ag66
ag66
ag66
ag66
ag66
ag66
ag66
ag66
ag66
asI17
(lp83
g66
ag66
ag66
ag66
ag66
ag66
ag66
ag66
ag66
ag66
ag66
ag66
asI18
(lp84
g66
ag66
ag66
ag66
ag66
ag66
ag66
ag66
ag66
ag66
ag66
ag66
asI19
(lp85
g66
ag66
ag66
ag66
ag66
ag66
ag66
ag66
ag66
ag66
ag66
ag66
asI20
(lp86
g66
ag66
ag66
ag66
ag66
ag66
ag66
ag66
ag66
ag66
ag66
ag66
assS'object_names'
p87
(lp88
S'Ea'
p89
aS'Ep'
p90
aS'n0'
p91
aS'n1'
p92
aS'n2'
p93
aS'n3'
p94
aS'n4'
p95
aS'n5'
p96
aS'n6'
p97
aS'n7'
p98
aS'n8'
p99
aS'n9'
p100
aS'n10'
p101
aS'n11'
p102
aS'o0'
p103
aS'o1'
p104
aS'o2'
p105
aS'o3'
p106
aS'o4'
p107
aS'o5'
p108
aS'o6'
p109
asS'object_seedpoints'
p110
(dp111
I0
(lp112
NaNaNaNaNaNaNaNaNaNaNacnumpy.core.multiarray
_reconstruct
p113
(cnumpy
ndarray
p114
(I0
tS'b'
tRp115
(I1
(I3
tcnumpy
dtype
p116
(S'i8'
I0
I1
tRp117
(I3
S'<'
NNNI-1
I-1
I0
tbI00
S'n\x00\x00\x00\x00\x00\x00\x00(\x01\x00\x00\x00\x00\x00\x00\x0e\x00\x00\x00\x00\x00\x00\x00'
tbasI1
(lp118
g113
(g114
(I0
tS'b'
tRp119
(I1
(I3
tg116
(S'f8'
I0
I1
tRp120
(I3
S'<'
NNNI-1
I-1
I0
tbI00
S'\x00\x00\x00\x00\x00\x80[@\x00\x00\x00\x00\x00\xe0u@\x00\x00\x00\x00\x00\x00(@'
tbag113
(g114
(I0
tS'b'
tRp121
(I1
(I3
tg120
I00
S'\x00\x00\x00\x00\x00\x00\\@\x00\x00\x00\x00\x00\xf0u@\x00\x00\x00\x00\x00\x00(@'
tbag113
(g114
(I0
tS'b'
tRp122
(I1
(I3
tg120
I00
S'\x00\x00\x00\x00\x00\xc0\\@\x00\x00\x00\x00\x00\x00v@\x00\x00\x00\x00\x00\x00*@'
tbag113
(g114
(I0
tS'b'
tRp123
(I1
(I3
tg120
I00
S'\x00\x00\x00\x00\x00\x80]@\x00\x00\x00\x00\x00\x00v@\x00\x00\x00\x00\x00\x00*@'
tbag113
(g114
(I0
tS'b'
tRp124
(I1
(I3
tg120
I00
S'\x00\x00\x00\x00\x00\x00^@\x00\x00\x00\x00\x00\x10v@\x00\x00\x00\x00\x00\x00*@'
tbag113
(g114
(I0
tS'b'
tRp125
(I1
(I3
tg120
I00
S'\x00\x00\x00\x00\x00\x80^@\x00\x00\x00\x00\x00 v@\x00\x00\x00\x00\x00\x00,@'
tbag113
(g114
(I0
tS'b'
tRp126
(I1
(I3
tg120
I00
S'\x00\x00\x00\x00\x00@_@\x00\x00\x00\x00\x000v@\x00\x00\x00\x00\x00\x00,@'
tbag113
(g114
(I0
tS'b'
tRp127
(I1
(I3
tg120
I00
S'\x00\x00\x00\x00\x00\x00`@\x00\x00\x00\x00\x00@v@\x00\x00\x00\x00\x00\x00,@'
tbag113
(g114
(I0
tS'b'
tRp128
(I1
(I3
tg120
I00
S'\x00\x00\x00\x00\x00@`@\x00\x00\x00\x00\x00Pv@\x00\x00\x00\x00\x00\x00.@'
tbag113
(g114
(I0
tS'b'
tRp129
(I1
(I3
tg120
I00
S'\x00\x00\x00\x00\x00\x80`@\x00\x00\x00\x00\x00`v@\x00\x00\x00\x00\x00\x00.@'
tbag113
(g114
(I0
tS'b'
tRp130
(I1
(I3
tg120
I00
S'\x00\x00\x00\x00\x00\xe0`@\x00\x00\x00\x00\x00`v@\x00\x00\x00\x00\x00\x00.@'
tbag113
(g114
(I0
tS'b'
tRp131
(I1
(I3
tg120
I00
S'\x00\x00\x00\x00\x00@a@\x00\x00\x00\x00\x00pv@\x00\x00\x00\x00\x00\x000@'
tbasI2
(lp132
NaNaNaNaNaNaNaNaNaNaNag113
(g114
(I0
tS'b'
tRp133
(I1
(I3
tg117
I00
S'`\x00\x00\x00\x00\x00\x00\x00s\x01\x00\x00\x00\x00\x00\x00\x0b\x00\x00\x00\x00\x00\x00\x00'
tbasI3
(lp134
NaNaNaNaNaNaNaNaNaNaNag113
(g114
(I0
tS'b'
tRp135
(I1
(I3
tg117
I00
S'\x86\x00\x00\x00\x00\x00\x00\x00\x92\x01\x00\x00\x00\x00\x00\x00\x0c\x00\x00\x00\x00\x00\x00\x00'
tbasI4
(lp136
NaNaNaNaNaNaNaNaNaNaNag113
(g114
(I0
tS'b'
tRp137
(I1
(I3
tg117
I00
S'\xb6\x00\x00\x00\x00\x00\x00\x00\x81\x01\x00\x00\x00\x00\x00\x00\n\x00\x00\x00\x00\x00\x00\x00'
tbasI5
(lp138
NaNaNaNaNaNaNaNaNaNaNag113
(g114
(I0
tS'b'
tRp139
(I1
(I3
tg117
I00
S'\xb9\x00\x00\x00\x00\x00\x00\x00M\x01\x00\x00\x00\x00\x00\x00\n\x00\x00\x00\x00\x00\x00\x00'
tbasI6
(lp140
NaNaNaNaNaNaNaNaNaNaNag113
(g114
(I0
tS'b'
tRp141
(I1
(I3
tg117
I00
S'\x99\x00\x00\x00\x00\x00\x00\x00\t\x01\x00\x00\x00\x00\x00\x00\n\x00\x00\x00\x00\x00\x00\x00'
tbasI7
(lp142
NaNaNaNaNaNaNaNaNaNaNag113
(g114
(I0
tS'b'
tRp143
(I1
(I3
tg117
I00
S'l\x00\x00\x00\x00\x00\x00\x00\xf1\x00\x00\x00\x00\x00\x00\x00\x0c\x00\x00\x00\x00\x00\x00\x00'
tbasI8
(lp144
NaNaNaNaNaNaNaNaNaNaNag113
(g114
(I0
tS'b'
tRp145
(I1
(I3
tg117
I00
S'1\x00\x00\x00\x00\x00\x00\x00\n\x01\x00\x00\x00\x00\x00\x00\n\x00\x00\x00\x00\x00\x00\x00'
tbasI9
(lp146
NaNaNaNaNaNaNaNaNaNaNag113
(g114
(I0
tS'b'
tRp147
(I1
(I3
tg117
I00
S'5\x00\x00\x00\x00\x00\x00\x00\x13\x01\x00\x00\x00\x00\x00\x00\x0b\x00\x00\x00\x00\x00\x00\x00'
tbasI10
(lp148
NaNaNaNaNaNaNaNaNaNaNag113
(g114
(I0
tS'b'
tRp149
(I1
(I3
tg117
I00
S'@\x00\x00\x00\x00\x00\x00\x00J\x01\x00\x00\x00\x00\x00\x00\r\x00\x00\x00\x00\x00\x00\x00'
tbasI11
(lp150
NaNaNaNaNaNaNaNaNaNaNag113
(g114
(I0
tS'b'
tRp151
(I1
(I3
tg117
I00
S'h\x00\x00\x00\x00\x00\x00\x00\x0f\x01\x00\x00\x00\x00\x00\x00\x11\x00\x00\x00\x00\x00\x00\x00'
tbasI12
(lp152
NaNaNaNaNaNaNaNaNaNaNag113
(g114
(I0
tS'b'
tRp153
(I1
(I3
tg117
I00
S'u\x00\x00\x00\x00\x00\x00\x00$\x01\x00\x00\x00\x00\x00\x00\x10\x00\x00\x00\x00\x00\x00\x00'
tbasI13
(lp154
NaNaNaNaNaNaNaNaNaNaNag113
(g114
(I0
tS'b'
tRp155
(I1
(I3
tg117
I00
S'\x8b\x00\x00\x00\x00\x00\x00\x00a\x01\x00\x00\x00\x00\x00\x00\x10\x00\x00\x00\x00\x00\x00\x00'
tbasI14
(lp156
NaNaNaNaNaNaNaNaNaNaNag113
(g114
(I0
tS'b'
tRp157
(I1
(I3
tg117
I00
S':\x00\x00\x00\x00\x00\x00\x00\xcd\x00\x00\x00\x00\x00\x00\x00\x0b\x00\x00\x00\x00\x00\x00\x00'
tbasI15
(lp158
NaNaNaNaNaNaNaNaNaNaNag113
(g114
(I0
tS'b'
tRp159
(I1
(I3
tg117
I00
S'\x81\x00\x00\x00\x00\x00\x00\x00\xb9\x00\x00\x00\x00\x00\x00\x00\n\x00\x00\x00\x00\x00\x00\x00'
tbasI16
(lp160
NaNaNaNaNaNaNaNaNaNaNag113
(g114
(I0
tS'b'
tRp161
(I1
(I3
tg117
I00
S'0\x00\x00\x00\x00\x00\x00\x00\xa3\x00\x00\x00\x00\x00\x00\x00\x0e\x00\x00\x00\x00\x00\x00\x00'
tbasI17
(lp162
NaNaNaNaNaNaNaNaNaNaNag113
(g114
(I0
tS'b'
tRp163
(I1
(I3
tg117
I00
S'Y\x00\x00\x00\x00\x00\x00\x00\x9a\x00\x00\x00\x00\x00\x00\x00\x0b\x00\x00\x00\x00\x00\x00\x00'
tbasI18
(lp164
NaNaNaNaNaNaNaNaNaNaNag113
(g114
(I0
tS'b'
tRp165
(I1
(I3
tg117
I00
S'\xb0\x00\x00\x00\x00\x00\x00\x00\xd7\x00\x00\x00\x00\x00\x00\x00\n\x00\x00\x00\x00\x00\x00\x00'
tbasI19
(lp166
NaNaNaNaNaNaNaNaNaNaNag113
(g114
(I0
tS'b'
tRp167
(I1
(I3
tg117
I00
S'\xc9\x00\x00\x00\x00\x00\x00\x00\x04\x01\x00\x00\x00\x00\x00\x00\x0c\x00\x00\x00\x00\x00\x00\x00'
tbasI20
(lp168
NaNaNaNaNaNaNaNaNaNaNag113
(g114
(I0
tS'b'
tRp169
(I1
(I3
tg117
I00
S'\xc3\x00\x00\x00\x00\x00\x00\x00A\x01\x00\x00\x00\x00\x00\x00\x0b\x00\x00\x00\x00\x00\x00\x00'
tbassS'silent'
p170
I00
sS'object_volumes'
p171
(dp172
I0
(lp173
I0
aI0
aI0
aI0
aI0
aI0
aI0
aI0
aI0
aI0
aI0
aI0
asI1
(lp174
I0
aI0
aI0
aI0
aI0
aI0
aI0
aI0
aI0
aI0
aI0
aI0
asI2
(lp175
I0
aI0
aI0
aI0
aI0
aI0
aI0
aI0
aI0
aI0
aI0
aI0
asI3
(lp176
I0
aI0
aI0
aI0
aI0
aI0
aI0
aI0
aI0
aI0
aI0
aI0
asI4
(lp177
I0
aI0
aI0
aI0
aI0
aI0
aI0
aI0
aI0
aI0
aI0
aI0
asI5
(lp178
I0
aI0
aI0
aI0
aI0
aI0
aI0
aI0
aI0
aI0
aI0
aI0
asI6
(lp179
I0
aI0
aI0
aI0
aI0
aI0
aI0
aI0
aI0
aI0
aI0
aI0
asI7
(lp180
I0
aI0
aI0
aI0
aI0
aI0
aI0
aI0
aI0
aI0
aI0
aI0
asI8
(lp181
I0
aI0
aI0
aI0
aI0
aI0
aI0
aI0
aI0
aI0
aI0
aI0
asI9
(lp182
I0
aI0
aI0
aI0
aI0
aI0
aI0
aI0
aI0
aI0
aI0
aI0
asI10
(lp183
I0
aI0
aI0
aI0
aI0
aI0
aI0
aI0
aI0
aI0
aI0
aI0
asI11
(lp184
I0
aI0
aI0
aI0
aI0
aI0
aI0
aI0
aI0
aI0
aI0
aI0
asI12
(lp185
I0
aI0
aI0
aI0
aI0
aI0
aI0
aI0
aI0
aI0
aI0
aI0
asI13
(lp186
I0
aI0
aI0
aI0
aI0
aI0
aI0
aI0
aI0
aI0
aI0
aI0
asI14
(lp187
I0
aI0
aI0
aI0
aI0
aI0
aI0
aI0
aI0
aI0
aI0
aI0
asI15
(lp188
I0
aI0
aI0
aI0
aI0
aI0
aI0
aI0
aI0
aI0
aI0
aI0
asI16
(lp189
I0
aI0
aI0
aI0
aI0
aI0
aI0
aI0
aI0
aI0
aI0
aI0
asI17
(lp190
I0
aI0
aI0
aI0
aI0
aI0
aI0
aI0
aI0
aI0
aI0
aI0
asI18
(lp191
I0
aI0
aI0
aI0
aI0
aI0
aI0
aI0
aI0
aI0
aI0
aI0
asI19
(lp192
I0
aI0
aI0
aI0
aI0
aI0
aI0
aI0
aI0
aI0
aI0
aI0
asI20
(lp193
I0
aI0
aI0
aI0
aI0
aI0
aI0
aI0
aI0
aI0
aI0
aI0
assS'max_delta_k'
p194
I4
sS'current_fame'
p195
Ns.